target datalayout = "e-m:e-p270:32:32-p271:32:32-p272:64:64-i64:64-i128:128-f80:128-n8:16:32:64-S128"
target triple = "x86_64-pc-linux-gnu"

%struct.RelFileLocator = type { i32, i32, i32 }

@pendingSyncHash = internal global ptr null, align 8

; Function Attrs: nounwind uwtable
define dso_local zeroext i1 @RelFileLocatorSkippingWAL(i64 %0, i32 %1) #0 {
  %3 = alloca i1, align 1
  %4 = alloca %struct.RelFileLocator, align 4
  %5 = alloca { i64, i32 }, align 4
  %6 = getelementptr inbounds nuw { i64, i32 }, ptr %5, i32 0, i32 0
  store i64 %0, ptr %6, align 4
  %7 = getelementptr inbounds nuw { i64, i32 }, ptr %5, i32 0, i32 1
  store i32 %1, ptr %7, align 4
  call void @llvm.memcpy.p0.p0.i64(ptr align 4 %4, ptr align 4 %5, i64 12, i1 false)
  %8 = load ptr, ptr @pendingSyncHash, align 8
  %9 = icmp ne ptr %8, null
  br i1 %9, label %10, label %14

10:                                               ; preds = %2
  %11 = load ptr, ptr @pendingSyncHash, align 8
  %12 = call ptr @hash_search(ptr noundef %11, ptr noundef %4, i32 noundef 0, ptr noundef null)
  %13 = icmp eq ptr %12, null
  br i1 %13, label %14, label %15

14:                                               ; preds = %10, %2
  store i1 false, ptr %3, align 1
  br label %16

15:                                               ; preds = %10
  store i1 true, ptr %3, align 1
  br label %16

16:                                               ; preds = %15, %14
  %17 = load i1, ptr %3, align 1
  ret i1 %17
}