; Function Attrs: nounwind uwtable
define dso_local zeroext i1 @RelFileLocatorSkippingWAL(i64 %0, i32 %1) local_unnamed_addr #0 {
  %3 = alloca %struct.RelFileLocator, align 8
  store i64 %0, ptr %3, align 8
  %.sroa.2.0..sroa_idx = getelementptr inbounds nuw i8, ptr %3, i64 8
  store i32 %1, ptr %.sroa.2.0..sroa_idx, align 8
  %4 = load ptr, ptr @pendingSyncHash, align 8
  %.not = icmp eq ptr %4, null
  br i1 %.not, label %8, label %5

5:                                                ; preds = %2
  %6 = call ptr @hash_search(ptr noundef nonnull %4, ptr noundef nonnull %3, i32 noundef 0, ptr noundef null) #8
  %7 = icmp ne ptr %6, null
  br label %8

8:                                                ; preds = %5, %2
  %.0 = phi i1 [ false, %2 ], [ %7, %5 ]
  ret i1 %.0
}